; Function Attrs: mustprogress nounwind uwtable
define dso_local noundef zeroext i1 @_ZN5clang6format16FormatTokenLexer22canPrecedeRegexLiteralEPNS0_11FormatTokenE(ptr noundef nonnull align 8 dereferenceable(3648) %0, ptr noundef readonly %1) local_unnamed_addr #0 align 2 {
  %.not = icmp eq ptr %1, null
  br i1 %.not, label %18, label %3

3:                                                ; preds = %2
  %4 = getelementptr inbounds nuw i8, ptr %1, i64 16
  %5 = load i16, ptr %4, align 8
  switch i16 %5, label %16 [
    i16 34, label %_ZNK5clang6format11FormatToken7isOneOfINS_3tok9TokenKindES4_JS4_EEEbT_T0_DpT1_.exit.thread
    i16 41, label %_ZNK5clang6format11FormatToken7isOneOfINS_3tok9TokenKindES4_JS4_EEEbT_T0_DpT1_.exit.thread
    i16 38, label %_ZNK5clang6format11FormatToken7isOneOfINS_3tok9TokenKindES4_JS4_EEEbT_T0_DpT1_.exit.thread
  ]

_ZNK5clang6format11FormatToken7isOneOfINS_3tok9TokenKindES4_JS4_EEEbT_T0_DpT1_.exit.thread: ; preds = %3, %3, %3
  %6 = getelementptr inbounds nuw i8, ptr %0, i64 3088
  %7 = tail call noundef i64 @_ZNK4llvm15SmallVectorBaseIjE4sizeEv(ptr noundef nonnull align 8 dereferenceable(16) %6) #19
  %8 = icmp ult i64 %7, 3
  br i1 %8, label %18, label %9

9:                                                ; preds = %_ZNK5clang6format11FormatToken7isOneOfINS_3tok9TokenKindES4_JS4_EEEbT_T0_DpT1_.exit.thread
  %10 = tail call noundef i64 @_ZNK4llvm15SmallVectorBaseIjE4sizeEv(ptr noundef nonnull align 8 dereferenceable(16) %6) #19
  %11 = load ptr, ptr %6, align 8
  %12 = getelementptr ptr, ptr %11, i64 %10
  %13 = getelementptr i8, ptr %12, i64 -24
  %14 = load ptr, ptr %13, align 8
  %15 = tail call noundef zeroext i1 @_ZN5clang6format16FormatTokenLexer15precedesOperandEPNS0_11FormatTokenE(ptr noundef nonnull align 8 dereferenceable(3648) %0, ptr noundef %14)
  br label %18

16:                                               ; preds = %3
  %17 = tail call noundef zeroext i1 @_ZN5clang6format16FormatTokenLexer15precedesOperandEPNS0_11FormatTokenE(ptr noundef nonnull align 8 dereferenceable(3648) %0, ptr noundef nonnull %1)
  br label %18

18:                                               ; preds = %16, %_ZNK5clang6format11FormatToken7isOneOfINS_3tok9TokenKindES4_JS4_EEEbT_T0_DpT1_.exit.thread, %9, %2
  %.0 = phi i1 [ true, %2 ], [ true, %_ZNK5clang6format11FormatToken7isOneOfINS_3tok9TokenKindES4_JS4_EEEbT_T0_DpT1_.exit.thread ], [ %15, %9 ], [ %17, %16 ]
  ret i1 %.0
}